; Function Attrs: nounwind uwtable
define hidden void @dom_reconcile_ns(ptr noundef %0, ptr noundef %1) local_unnamed_addr #1 {
  %3 = getelementptr inbounds i8, ptr %1, i64 8
  %4 = load i32, ptr %3, align 8
  %5 = icmp ne i32 %4, 2
  tail call void @llvm.assume(i1 %5)
  %6 = icmp eq i32 %4, 1
  br i1 %6, label %7, label %31

7:                                                ; preds = %2
  %8 = getelementptr inbounds i8, ptr %1, i64 40
  %9 = load ptr, ptr %8, align 8
  %10 = getelementptr inbounds i8, ptr %1, i64 96
  %11 = load ptr, ptr %10, align 8
  %.not.i = icmp eq ptr %11, null
  br i1 %.not.i, label %dom_reconcile_ns_internal.exit, label %.preheader.i

.preheader.i:                                     ; preds = %7, %27
  %.032.i = phi ptr [ %.1.i, %27 ], [ null, %7 ]
  %.02231.i = phi ptr [ %12, %27 ], [ %11, %7 ]
  %12 = load ptr, ptr %.02231.i, align 8
  %13 = getelementptr inbounds i8, ptr %.02231.i, i64 16
  %14 = load ptr, ptr %13, align 8
  %.not28.i = icmp eq ptr %14, null
  br i1 %.not28.i, label %27, label %15

15:                                               ; preds = %.preheader.i
  %16 = tail call ptr @xmlSearchNsByHref(ptr noundef %0, ptr noundef %9, ptr noundef nonnull %14) #16
  %.not29.i = icmp eq ptr %16, null
  br i1 %.not29.i, label %27, label %17

17:                                               ; preds = %15
  %18 = getelementptr inbounds i8, ptr %.02231.i, i64 24
  %19 = load ptr, ptr %18, align 8
  %20 = icmp eq ptr %19, null
  br i1 %20, label %25, label %21

21:                                               ; preds = %17
  %22 = getelementptr inbounds i8, ptr %16, i64 24
  %23 = load ptr, ptr %22, align 8
  %24 = tail call i32 @xmlStrEqual(ptr noundef %23, ptr noundef nonnull %19) #16
  %.not30.i = icmp eq i32 %24, 0
  br i1 %.not30.i, label %27, label %25

25:                                               ; preds = %21, %17
  store ptr null, ptr %.02231.i, align 8
  %26 = icmp eq ptr %.032.i, null
  %..032.i = select i1 %26, ptr %10, ptr %.032.i
  store ptr %12, ptr %..032.i, align 8
  tail call void @php_libxml_set_old_ns(ptr noundef %0, ptr noundef nonnull %.02231.i) #16
  br label %27

27:                                               ; preds = %25, %21, %15, %.preheader.i
  %.1.i = phi ptr [ %.032.i, %25 ], [ %.02231.i, %21 ], [ %.02231.i, %15 ], [ %.02231.i, %.preheader.i ]
  %.not27.i = icmp eq ptr %12, null
  br i1 %.not27.i, label %dom_reconcile_ns_internal.exit, label %.preheader.i

dom_reconcile_ns_internal.exit:                   ; preds = %27, %7
  %28 = getelementptr inbounds i8, ptr %1, i64 64
  %29 = load ptr, ptr %28, align 8
  %30 = tail call i32 @xmlReconciliateNs(ptr noundef %29, ptr noundef %1) #16
  br label %31

31:                                               ; preds = %dom_reconcile_ns_internal.exit, %2
  ret void
}